target datalayout = "e-m:e-p270:32:32-p271:32:32-p272:64:64-i64:64-i128:128-f80:128-n8:16:32:64-S128"
target triple = "x86_64-pc-linux-gnu"

%class.OopHandle = type { ptr }
%class.XPageAllocatorStats = type { i64, i64, i64, i64, i64, i64, i64, i64, i64 }
%class.XHeap = type { %class.XWorkers, %class.XObjectAllocator, %class.XPageAllocator, %class.XPageTable, %class.XForwardingTable, [8 x i8], %class.XMark, %class.XReferenceProcessor, %class.XWeakRootsProcessor, %class.XRelocate, %class.XRelocationSet, %class.XUnload, %class.XServiceability, [8 x i8] }
%class.XWorkers = type { %class.WorkerThreads }
%class.WorkerThreads = type { ptr, ptr, ptr, i32, i32, i32, %class.WorkerTaskDispatcher }
%class.WorkerTaskDispatcher = type { ptr, i32, i32, %class.Semaphore, %class.Semaphore }
%class.Semaphore = type { %class.PosixSemaphore }
%class.PosixSemaphore = type { %union.sem_t }
%union.sem_t = type { i64, [24 x i8] }
%class.XObjectAllocator = type { i8, %class.XValue, %class.XValue, %class.XValue, %class.XValue, %class.XValue.3, %class.XValue.4 }
%class.XValue = type { i64 }
%class.XValue.3 = type { i64 }
%class.XValue.4 = type { i64 }
%class.XPageAllocator = type <{ %class.XLock, %class.XPageCache, %class.XVirtualMemoryManager, %class.XPhysicalMemoryManager, i64, i64, i64, i64, i64, i64, i64, i64, i64, %class.XList.8, i64, %class.XList.8, ptr, ptr, %class.XSafeDelete, i8, [7 x i8] }>
%class.XLock = type { %class.PlatformMutex }
%class.PlatformMutex = type { %union.pthread_mutex_t }
%union.pthread_mutex_t = type { %struct.__pthread_mutex_s }
%struct.__pthread_mutex_s = type { i32, i32, i32, i32, i32, i16, i16, %struct.__pthread_internal_list }
%struct.__pthread_internal_list = type { ptr, ptr }
%class.XPageCache = type { %class.XValue.5, %class.XList, %class.XList, i64 }
%class.XValue.5 = type { i64 }
%class.XList = type { %class.XListNode, i64 }
%class.XListNode = type { ptr, ptr }
%class.XVirtualMemoryManager = type <{ %class.XMemoryManager, i64, i8, [7 x i8] }>
%class.XMemoryManager = type { %class.XLock, %class.XList.6, %"struct.XMemoryManager::Callbacks" }
%class.XList.6 = type { %class.XListNode.7, i64 }
%class.XListNode.7 = type { ptr, ptr }
%"struct.XMemoryManager::Callbacks" = type { ptr, ptr, ptr, ptr, ptr, ptr }
%class.XPhysicalMemoryManager = type { %class.XPhysicalMemoryBacking, %class.XMemoryManager }
%class.XPhysicalMemoryBacking = type <{ i32, [4 x i8], i64, i64, i64, i64, i8, [7 x i8] }>
%class.XList.8 = type { %class.XListNode.9, i64 }
%class.XListNode.9 = type { ptr, ptr }
%class.XSafeDelete = type { %class.XSafeDeleteImpl, %class.XLock }
%class.XSafeDeleteImpl = type { ptr, i64, %class.GrowableArrayCHeap }
%class.GrowableArrayCHeap = type { %class.GrowableArrayWithAllocator }
%class.GrowableArrayWithAllocator = type { %class.GrowableArrayView }
%class.GrowableArrayView = type { %class.GrowableArrayBase, ptr }
%class.GrowableArrayBase = type { i32, i32 }
%class.XPageTable = type { %class.XGranuleMap }
%class.XGranuleMap = type { i64, ptr }
%class.XForwardingTable = type { %class.XGranuleMap.10 }
%class.XGranuleMap.10 = type { i64, ptr }
%class.XMark = type <{ ptr, ptr, [48 x i8], %class.XMarkStackAllocator, %class.XMarkStripeSet, %class.XMarkTerminate, i8, [7 x i8], i64, i64, i64, i64, i64, i64, i32, [4 x i8] }>
%class.XMarkStackAllocator = type { %class.XStackList, [56 x i8], %class.XMarkStackSpace }
%class.XStackList = type { ptr }
%class.XMarkStackSpace = type { %class.XLock, i64, i64, i64 }
%class.XMarkStripeSet = type { i64, i64, [48 x i8], [16 x %class.XMarkStripe] }
%class.XMarkStripe = type { %class.XStackList.11, [56 x i8], %class.XStackList.11, [56 x i8] }
%class.XStackList.11 = type { ptr }
%class.XMarkTerminate = type { i32, [60 x i8], i32, i32, [56 x i8] }
%class.XReferenceProcessor = type { %class.ReferenceDiscoverer, ptr, ptr, %class.XValue.12, %class.XValue.12, %class.XValue.12, %class.XValue.13, %class.XValue.14, ptr }
%class.ReferenceDiscoverer = type { ptr }
%class.XValue.12 = type { i64 }
%class.XValue.13 = type { i64 }
%class.XValue.14 = type { i64 }
%class.XWeakRootsProcessor = type { ptr }
%class.XRelocate = type { ptr }
%class.XRelocationSet = type { ptr, %class.XForwardingAllocator, ptr, i64 }
%class.XForwardingAllocator = type { ptr, ptr, ptr }
%class.XUnload = type { ptr }
%class.XServiceability = type { i64, i64, %class.XServiceabilityMemoryPool, %class.XServiceabilityMemoryManager, %class.XServiceabilityMemoryManager, ptr }
%class.XServiceabilityMemoryPool = type { %class.CollectedMemoryPool.base, [7 x i8] }
%class.CollectedMemoryPool.base = type { %class.MemoryPool.base }
%class.MemoryPool.base = type <{ ptr, ptr, i32, [4 x i8], i64, i64, i8, [7 x i8], [5 x ptr], i32, [4 x i8], %class.MemoryUsage, %class.MemoryUsage, ptr, ptr, ptr, ptr, %class.OopHandle, i8 }>
%class.MemoryUsage = type { i64, i64, i64, i64 }
%class.XServiceabilityMemoryManager = type { %class.GCMemoryManager.base, i8 }
%class.GCMemoryManager.base = type <{ %class.MemoryManager.base, [7 x i8], i64, %class.elapsedTimer, ptr, ptr, ptr, i32, i8, [10 x i8] }>
%class.MemoryManager.base = type <{ ptr, [10 x ptr], i32, [4 x i8], ptr, %class.OopHandle, i8 }>
%class.elapsedTimer = type <{ i64, i64, i8, [7 x i8] }>

@XGlobalPhase = external global i32, align 4

; Function Attrs: mustprogress nounwind uwtable
define hidden noundef zeroext i1 @_ZN5XHeap8mark_endEv(ptr noundef nonnull align 64 dereferenceable(4088) %0) #1 align 2 {
  %2 = alloca i1, align 1
  %3 = alloca ptr, align 8
  %4 = alloca %class.XPageAllocatorStats, align 8
  store ptr %0, ptr %3, align 8
  %5 = load ptr, ptr %3, align 8
  %6 = getelementptr inbounds %class.XHeap, ptr %5, i32 0, i32 6
  %7 = call noundef zeroext i1 @_ZN5XMark3endEv(ptr noundef nonnull align 64 dereferenceable(2492) %6)
  br i1 %7, label %9, label %8

8:                                                ; preds = %1
  store i1 false, ptr %2, align 1
  br label %12

9:                                                ; preds = %1
  store i32 1, ptr @XGlobalPhase, align 4
  call void @_ZN7XVerify10after_markEv()
  %10 = getelementptr inbounds %class.XHeap, ptr %5, i32 0, i32 2
  call void @_ZNK14XPageAllocator5statsEv(ptr dead_on_unwind writable sret(%class.XPageAllocatorStats) align 8 %4, ptr noundef nonnull align 8 dereferenceable(609) %10)
  call void @_ZN9XStatHeap15set_at_mark_endERK19XPageAllocatorStats(ptr noundef nonnull align 8 dereferenceable(72) %4)
  call void @_ZN13XResurrection5blockEv()
  %11 = getelementptr inbounds %class.XHeap, ptr %5, i32 0, i32 11
  call void @_ZN7XUnload7prepareEv(ptr noundef nonnull align 8 dereferenceable(8) %11)
  call void @_ZN11JvmtiTagMap18set_needs_cleaningEv()
  store i1 true, ptr %2, align 1
  br label %12

12:                                               ; preds = %9, %8
  %13 = load i1, ptr %2, align 1
  ret i1 %13
}