; Function Attrs: mustprogress nounwind uwtable
define hidden noundef zeroext i1 @_ZN5XHeap8mark_endEv(ptr noundef nonnull align 64 dereferenceable(4088) %0) local_unnamed_addr #1 align 2 {
  %2 = alloca %class.XPageAllocatorStats, align 8
  %3 = getelementptr inbounds i8, ptr %0, i64 832
  %4 = tail call noundef zeroext i1 @_ZN5XMark3endEv(ptr noundef nonnull align 64 dereferenceable(2492) %3) #12
  br i1 %4, label %5, label %8

5:                                                ; preds = %1
  store i32 1, ptr @XGlobalPhase, align 4
  tail call void @_ZN7XVerify10after_markEv() #12
  %6 = getelementptr inbounds i8, ptr %0, i64 176
  call void @_ZNK14XPageAllocator5statsEv(ptr dead_on_unwind nonnull writable sret(%class.XPageAllocatorStats) align 8 %2, ptr noundef nonnull align 8 dereferenceable(609) %6) #12
  call void @_ZN9XStatHeap15set_at_mark_endERK19XPageAllocatorStats(ptr noundef nonnull align 8 dereferenceable(72) %2) #12
  call void @_ZN13XResurrection5blockEv() #12
  %7 = getelementptr inbounds i8, ptr %0, i64 3464
  call void @_ZN7XUnload7prepareEv(ptr noundef nonnull align 8 dereferenceable(8) %7) #12
  call void @_ZN11JvmtiTagMap18set_needs_cleaningEv() #12
  br label %8

8:                                                ; preds = %1, %5
  ret i1 %4
}